; Function Attrs: nounwind sspstrong uwtable
define internal range(i64 0, 21) i64 @rb_stat_x(i64 noundef %0) #0 {
  %2 = tail call ptr @rb_check_typeddata(i64 noundef %0, ptr noundef nonnull @stat_data_type) #22
  %3 = getelementptr inbounds nuw i8, ptr %2, i64 144
  %4 = load i8, ptr %3, align 8, !tbaa !28, !range !278, !noundef !279
  %5 = trunc nuw i8 %4 to i1
  br i1 %5, label %get_stat.exit, label %6

6:                                                ; preds = %1
  %7 = load i64, ptr @rb_eTypeError, align 8, !tbaa !12
  tail call void (i64, ptr, ...) @rb_raise(i64 noundef %7, ptr noundef nonnull @.str.147) #24
  unreachable

get_stat.exit:                                    ; preds = %1
  %8 = tail call i32 @geteuid() #22
  %9 = icmp eq i32 %8, 0
  br i1 %9, label %10, label %14

10:                                               ; preds = %get_stat.exit
  %11 = getelementptr inbounds nuw i8, ptr %2, i64 24
  %12 = load i32, ptr %11, align 8, !tbaa !180
  %13 = and i32 %12, 73
  br label %44

14:                                               ; preds = %get_stat.exit
  %15 = tail call ptr @rb_check_typeddata(i64 noundef %0, ptr noundef nonnull @stat_data_type) #22
  %16 = getelementptr inbounds nuw i8, ptr %15, i64 144
  %17 = load i8, ptr %16, align 8, !tbaa !28, !range !278, !noundef !279
  %18 = trunc nuw i8 %17 to i1
  br i1 %18, label %rb_stat_owned.exit, label %19

19:                                               ; preds = %14
  %20 = load i64, ptr @rb_eTypeError, align 8, !tbaa !12
  tail call void (i64, ptr, ...) @rb_raise(i64 noundef %20, ptr noundef nonnull @.str.147) #24
  unreachable

rb_stat_owned.exit:                               ; preds = %14
  %21 = getelementptr inbounds nuw i8, ptr %15, i64 28
  %22 = load i32, ptr %21, align 4, !tbaa !204
  %23 = tail call i32 @geteuid() #22
  %.not = icmp eq i32 %22, %23
  br i1 %.not, label %24, label %28

24:                                               ; preds = %rb_stat_owned.exit
  %25 = getelementptr inbounds nuw i8, ptr %2, i64 24
  %26 = load i32, ptr %25, align 8, !tbaa !180
  %27 = and i32 %26, 64
  br label %44

28:                                               ; preds = %rb_stat_owned.exit
  %29 = tail call ptr @rb_check_typeddata(i64 noundef %0, ptr noundef nonnull @stat_data_type) #22
  %30 = getelementptr inbounds nuw i8, ptr %29, i64 144
  %31 = load i8, ptr %30, align 8, !tbaa !28, !range !278, !noundef !279
  %32 = trunc nuw i8 %31 to i1
  br i1 %32, label %rb_stat_grpowned.exit, label %33

33:                                               ; preds = %28
  %34 = load i64, ptr @rb_eTypeError, align 8, !tbaa !12
  tail call void (i64, ptr, ...) @rb_raise(i64 noundef %34, ptr noundef nonnull @.str.147) #24
  unreachable

rb_stat_grpowned.exit:                            ; preds = %28
  %35 = getelementptr inbounds nuw i8, ptr %29, i64 32
  %36 = load i32, ptr %35, align 8, !tbaa !205
  %37 = tail call fastcc i32 @rb_group_member(i32 noundef %36)
  %.not.i = icmp eq i32 %37, 0
  %38 = getelementptr inbounds nuw i8, ptr %2, i64 24
  %39 = load i32, ptr %38, align 8, !tbaa !180
  br i1 %.not.i, label %42, label %40

40:                                               ; preds = %rb_stat_grpowned.exit
  %41 = and i32 %39, 8
  br label %44

42:                                               ; preds = %rb_stat_grpowned.exit
  %43 = and i32 %39, 1
  br label %44

44:                                               ; preds = %42, %40, %24, %10
  %.sink = phi i32 [ %43, %42 ], [ %41, %40 ], [ %27, %24 ], [ %13, %10 ]
  %.not8 = icmp eq i32 %.sink, 0
  %. = select i1 %.not8, i64 0, i64 20
  ret i64 %.
}